target datalayout = "e-m:e-p270:32:32-p271:32:32-p272:64:64-i64:64-i128:128-f80:128-n8:16:32:64-S128"
target triple = "x86_64-unknown-linux-gnu"

%"class.node::encoding_binding::BindingData" = type { %"class.node::SnapshotableObject.base", %"class.node::AliasedBufferBase", ptr }
%"class.node::SnapshotableObject.base" = type <{ %"class.node::BaseObject", i8 }>
%"class.node::BaseObject" = type { %"class.node::MemoryRetainer", %"class.v8::Global", ptr, ptr }
%"class.node::MemoryRetainer" = type { ptr }
%"class.v8::Global" = type { %"class.v8::PersistentBase" }
%"class.v8::PersistentBase" = type { %"class.v8::IndirectHandleBase" }
%"class.v8::IndirectHandleBase" = type { ptr }
%"class.node::AliasedBufferBase" = type { %"class.node::MemoryRetainer", ptr, i64, i64, ptr, %"class.v8::Global.5", ptr }
%"class.v8::Global.5" = type { %"class.v8::PersistentBase.6" }
%"class.v8::PersistentBase.6" = type { %"class.v8::IndirectHandleBase" }
%"class.v8::Local.47" = type { %"class.v8::LocalBase.48" }
%"class.v8::LocalBase.48" = type { %"class.v8::IndirectHandleBase" }
%"class.v8::Local.41" = type { %"class.v8::LocalBase.42" }
%"class.v8::LocalBase.42" = type { %"class.v8::IndirectHandleBase" }
%"struct.node::encoding_binding::BindingData::InternalFieldInfo" = type { %"struct.node::InternalFieldInfoBase", i64 }
%"struct.node::InternalFieldInfoBase" = type { i8, i64 }
%"class.node::SnapshotableObject" = type <{ %"class.node::BaseObject", i8, [7 x i8] }>

; Function Attrs: mustprogress nounwind uwtable
define linkonce_odr dso_local ptr @_ZNK4node17AliasedBufferBaseIjN2v811Uint32ArrayEE10GetJSArrayEv(ptr noundef nonnull align 8 dereferenceable(56) %this) #4 comdat align 2 {
entry:
  %slot.addr.i = alloca ptr, align 8
  %this.addr.i32 = alloca ptr, align 8
  %location.addr.i33 = alloca ptr, align 8
  %this.addr.i30 = alloca ptr, align 8
  %location.addr.i = alloca ptr, align 8
  %value.addr.i29 = alloca ptr, align 8
  %retval.i26 = alloca %"class.v8::LocalBase.48", align 8
  %isolate.addr.i27 = alloca ptr, align 8
  %value.addr.i28 = alloca i64, align 8
  %this.addr.i.i22 = alloca ptr, align 8
  %this.addr.i23 = alloca ptr, align 8
  %value.addr.i = alloca ptr, align 8
  %this.addr.i20 = alloca ptr, align 8
  %other.addr.i = alloca ptr, align 8
  %retval.i15 = alloca %"class.v8::LocalBase.48", align 8
  %isolate.addr.i16 = alloca ptr, align 8
  %that.addr.i17 = alloca ptr, align 8
  %this.addr.i.i = alloca ptr, align 8
  %this.addr.i13 = alloca ptr, align 8
  %retval.i10 = alloca %"class.v8::Local.47", align 8
  %isolate.addr.i11 = alloca ptr, align 8
  %that.addr.i12 = alloca ptr, align 8
  %ref.tmp.i = alloca %"class.v8::LocalBase.48", align 8
  %retval.i7 = alloca %"class.v8::Local.47", align 8
  %isolate.addr.i8 = alloca ptr, align 8
  %that.addr.i = alloca ptr, align 8
  %retval.i = alloca %"class.v8::Local.47", align 8
  %this.addr.i = alloca ptr, align 8
  %isolate.addr.i = alloca ptr, align 8
  %retval = alloca %"class.v8::Local.47", align 8
  %this.addr = alloca ptr, align 8
  store ptr %this, ptr %this.addr, align 8
  %this1 = load ptr, ptr %this.addr, align 8
  %js_array_ = getelementptr inbounds %"class.node::AliasedBufferBase", ptr %this1, i32 0, i32 5
  %isolate_ = getelementptr inbounds %"class.node::AliasedBufferBase", ptr %this1, i32 0, i32 1
  %0 = load ptr, ptr %isolate_, align 8
  store ptr %js_array_, ptr %this.addr.i, align 8
  store ptr %0, ptr %isolate.addr.i, align 8
  %this1.i = load ptr, ptr %this.addr.i, align 8
  %1 = load ptr, ptr %isolate.addr.i, align 8
  store ptr %1, ptr %isolate.addr.i8, align 8
  store ptr %this1.i, ptr %that.addr.i, align 8
  %2 = load ptr, ptr %isolate.addr.i8, align 8
  %3 = load ptr, ptr %that.addr.i, align 8
  store ptr %3, ptr %this.addr.i13, align 8
  %this1.i14 = load ptr, ptr %this.addr.i13, align 8
  store ptr %this1.i14, ptr %this.addr.i.i, align 8
  %this1.i.i = load ptr, ptr %this.addr.i.i, align 8
  %4 = load ptr, ptr %this1.i.i, align 8
  store ptr %4, ptr %slot.addr.i, align 8
  %5 = load ptr, ptr %slot.addr.i, align 8
  store ptr %2, ptr %isolate.addr.i11, align 8
  store ptr %5, ptr %that.addr.i12, align 8
  %6 = load ptr, ptr %isolate.addr.i11, align 8
  %7 = load ptr, ptr %that.addr.i12, align 8
  store ptr %6, ptr %isolate.addr.i16, align 8
  store ptr %7, ptr %that.addr.i17, align 8
  %8 = load ptr, ptr %that.addr.i17, align 8
  store ptr %8, ptr %value.addr.i, align 8
  %9 = load ptr, ptr %value.addr.i, align 8
  %10 = ptrtoint ptr %9 to i64
  %cmp.i = icmp eq i64 %10, 0
  br i1 %cmp.i, label %if.then.i, label %if.end.i

if.then.i:                                        ; preds = %entry
  call void @llvm.memset.p0.i64(ptr align 8 %retval.i15, i8 0, i64 8, i1 false)
  store ptr %retval.i15, ptr %this.addr.i23, align 8
  %this1.i24 = load ptr, ptr %this.addr.i23, align 8
  store ptr %this1.i24, ptr %this.addr.i.i22, align 8
  %this1.i.i25 = load ptr, ptr %this.addr.i.i22, align 8
  store ptr null, ptr %this1.i.i25, align 8
  br label %_ZN2v89LocalBaseINS_11Uint32ArrayEE3NewEPNS_7IsolateEPS1_.exit

if.end.i:                                         ; preds = %entry
  %11 = load ptr, ptr %isolate.addr.i16, align 8
  %12 = load ptr, ptr %that.addr.i17, align 8
  store ptr %12, ptr %value.addr.i29, align 8
  %13 = load ptr, ptr %value.addr.i29, align 8
  %14 = load i64, ptr %13, align 8
  store ptr %11, ptr %isolate.addr.i27, align 8
  store i64 %14, ptr %value.addr.i28, align 8
  %15 = load ptr, ptr %isolate.addr.i27, align 8
  %16 = load i64, ptr %value.addr.i28, align 8
  %call.i = call noundef ptr @_ZN2v811HandleScope12CreateHandleEPNS_8internal7IsolateEm(ptr noundef %15, i64 noundef %16) #3
  store ptr %retval.i26, ptr %this.addr.i30, align 8
  store ptr %call.i, ptr %location.addr.i, align 8
  %this1.i31 = load ptr, ptr %this.addr.i30, align 8
  %17 = load ptr, ptr %location.addr.i, align 8
  store ptr %this1.i31, ptr %this.addr.i32, align 8
  store ptr %17, ptr %location.addr.i33, align 8
  %this1.i34 = load ptr, ptr %this.addr.i32, align 8
  %18 = load ptr, ptr %location.addr.i33, align 8
  store ptr %18, ptr %this1.i34, align 8
  %19 = load ptr, ptr %retval.i26, align 8
  store ptr %19, ptr %retval.i15, align 8
  br label %_ZN2v89LocalBaseINS_11Uint32ArrayEE3NewEPNS_7IsolateEPS1_.exit

_ZN2v89LocalBaseINS_11Uint32ArrayEE3NewEPNS_7IsolateEPS1_.exit: ; preds = %if.end.i, %if.then.i
  %20 = load ptr, ptr %retval.i15, align 8
  store ptr %20, ptr %ref.tmp.i, align 8
  store ptr %retval.i10, ptr %this.addr.i20, align 8
  store ptr %ref.tmp.i, ptr %other.addr.i, align 8
  %this1.i21 = load ptr, ptr %this.addr.i20, align 8
  %21 = load ptr, ptr %other.addr.i, align 8
  call void @llvm.memcpy.p0.p0.i64(ptr align 8 %this1.i21, ptr align 8 %21, i64 8, i1 false)
  %22 = load ptr, ptr %retval.i10, align 8
  store ptr %22, ptr %retval.i7, align 8
  %23 = load ptr, ptr %retval.i7, align 8
  store ptr %23, ptr %retval.i, align 8
  %24 = load ptr, ptr %retval.i, align 8
  %coerce.dive = getelementptr inbounds %"class.v8::Local.47", ptr %retval, i32 0, i32 0
  %coerce.dive2 = getelementptr inbounds %"class.v8::LocalBase.48", ptr %coerce.dive, i32 0, i32 0
  %coerce.dive3 = getelementptr inbounds %"class.v8::IndirectHandleBase", ptr %coerce.dive2, i32 0, i32 0
  store ptr %24, ptr %coerce.dive3, align 8
  %coerce.dive4 = getelementptr inbounds %"class.v8::Local.47", ptr %retval, i32 0, i32 0
  %coerce.dive5 = getelementptr inbounds %"class.v8::LocalBase.48", ptr %coerce.dive4, i32 0, i32 0
  %coerce.dive6 = getelementptr inbounds %"class.v8::IndirectHandleBase", ptr %coerce.dive5, i32 0, i32 0
  %25 = load ptr, ptr %coerce.dive6, align 8
  ret ptr %25
}

; Function Attrs: mustprogress nounwind uwtable
define linkonce_odr dso_local noundef i64 @_ZN4node17AliasedBufferBaseIjN2v811Uint32ArrayEE9SerializeENS1_5LocalINS1_7ContextEEEPNS1_15SnapshotCreatorE(ptr noundef nonnull align 8 dereferenceable(56) %this, ptr %context.coerce, ptr noundef %creator) #4 comdat align 2 {
entry:
  %slot.addr.i.i.i.i = alloca ptr, align 8
  %this.addr.i.i.i.i.i = alloca ptr, align 8
  %this.addr.i.i.i.i = alloca ptr, align 8
  %this.addr.i.i.i = alloca ptr, align 8
  %this.addr.i.i = alloca ptr, align 8
  %value.addr.i.i = alloca ptr, align 8
  %context.i = alloca %"class.v8::Local.41", align 8
  %object.i = alloca %"class.v8::Local.47", align 8
  %this.addr.i = alloca ptr, align 8
  %agg.tmp.i = alloca %"class.v8::Local.41", align 8
  %context = alloca %"class.v8::Local.41", align 8
  %this.addr = alloca ptr, align 8
  %creator.addr = alloca ptr, align 8
  %agg.tmp = alloca %"class.v8::Local.41", align 8
  %agg.tmp4 = alloca %"class.v8::Local.47", align 8
  %coerce.dive = getelementptr inbounds %"class.v8::Local.41", ptr %context, i32 0, i32 0
  %coerce.dive1 = getelementptr inbounds %"class.v8::LocalBase.42", ptr %coerce.dive, i32 0, i32 0
  %coerce.dive2 = getelementptr inbounds %"class.v8::IndirectHandleBase", ptr %coerce.dive1, i32 0, i32 0
  store ptr %context.coerce, ptr %coerce.dive2, align 8
  store ptr %this, ptr %this.addr, align 8
  store ptr %creator, ptr %creator.addr, align 8
  %this3 = load ptr, ptr %this.addr, align 8
  %0 = load ptr, ptr %creator.addr, align 8
  call void @llvm.memcpy.p0.p0.i64(ptr align 8 %agg.tmp, ptr align 8 %context, i64 8, i1 false)
  %call = call ptr @_ZNK4node17AliasedBufferBaseIjN2v811Uint32ArrayEE10GetJSArrayEv(ptr noundef nonnull align 8 dereferenceable(56) %this3)
  %coerce.dive5 = getelementptr inbounds %"class.v8::Local.47", ptr %agg.tmp4, i32 0, i32 0
  %coerce.dive6 = getelementptr inbounds %"class.v8::LocalBase.48", ptr %coerce.dive5, i32 0, i32 0
  %coerce.dive7 = getelementptr inbounds %"class.v8::IndirectHandleBase", ptr %coerce.dive6, i32 0, i32 0
  store ptr %call, ptr %coerce.dive7, align 8
  %coerce.dive8 = getelementptr inbounds %"class.v8::Local.41", ptr %agg.tmp, i32 0, i32 0
  %coerce.dive9 = getelementptr inbounds %"class.v8::LocalBase.42", ptr %coerce.dive8, i32 0, i32 0
  %coerce.dive10 = getelementptr inbounds %"class.v8::IndirectHandleBase", ptr %coerce.dive9, i32 0, i32 0
  %1 = load ptr, ptr %coerce.dive10, align 8
  %coerce.dive11 = getelementptr inbounds %"class.v8::Local.47", ptr %agg.tmp4, i32 0, i32 0
  %coerce.dive12 = getelementptr inbounds %"class.v8::LocalBase.48", ptr %coerce.dive11, i32 0, i32 0
  %coerce.dive13 = getelementptr inbounds %"class.v8::IndirectHandleBase", ptr %coerce.dive12, i32 0, i32 0
  %2 = load ptr, ptr %coerce.dive13, align 8
  store ptr %1, ptr %context.i, align 8
  store ptr %2, ptr %object.i, align 8
  store ptr %0, ptr %this.addr.i, align 8
  %this6.i = load ptr, ptr %this.addr.i, align 8
  call void @llvm.memcpy.p0.p0.i64(ptr align 8 %agg.tmp.i, ptr align 8 %context.i, i64 8, i1 false)
  store ptr %object.i, ptr %this.addr.i.i, align 8
  %this1.i.i = load ptr, ptr %this.addr.i.i, align 8
  store ptr %this1.i.i, ptr %this.addr.i.i.i, align 8
  %this1.i.i.i = load ptr, ptr %this.addr.i.i.i, align 8
  store ptr %this1.i.i.i, ptr %this.addr.i.i.i.i, align 8
  %this1.i.i.i.i = load ptr, ptr %this.addr.i.i.i.i, align 8
  store ptr %this1.i.i.i.i, ptr %this.addr.i.i.i.i.i, align 8
  %this1.i.i.i.i.i = load ptr, ptr %this.addr.i.i.i.i.i, align 8
  %3 = load ptr, ptr %this1.i.i.i.i.i, align 8
  store ptr %3, ptr %slot.addr.i.i.i.i, align 8
  %4 = load ptr, ptr %slot.addr.i.i.i.i, align 8
  store ptr %4, ptr %value.addr.i.i, align 8
  %5 = load ptr, ptr %value.addr.i.i, align 8
  %6 = load i64, ptr %5, align 8
  %7 = load ptr, ptr %agg.tmp.i, align 8
  %call11.i = call noundef i64 @_ZN2v815SnapshotCreator7AddDataENS_5LocalINS_7ContextEEEm(ptr noundef nonnull align 8 dereferenceable(8) %this6.i, ptr %7, i64 noundef %6) #3
  ret i64 %call11.i
}

; Function Attrs: mustprogress nounwind uwtable
define linkonce_odr dso_local noundef ptr @_ZN4node21InternalFieldInfoBase3NewINS_16encoding_binding11BindingData17InternalFieldInfoEEEPT_NS_18EmbedderObjectTypeE(i8 noundef zeroext %type) #4 comdat align 2 {
entry:
  %type.addr = alloca i8, align 1
  %buf = alloca ptr, align 8
  %result = alloca ptr, align 8
  store i8 %type, ptr %type.addr, align 1
  %call = call noalias noundef nonnull ptr @_Znam(i64 noundef 24) #15
  store ptr %call, ptr %buf, align 8
  %0 = load ptr, ptr %buf, align 8
  store ptr %0, ptr %result, align 8
  %1 = load i8, ptr %type.addr, align 1
  %2 = load ptr, ptr %result, align 8
  %type1 = getelementptr inbounds %"struct.node::InternalFieldInfoBase", ptr %2, i32 0, i32 0
  store i8 %1, ptr %type1, align 8
  %3 = load ptr, ptr %result, align 8
  %length = getelementptr inbounds %"struct.node::InternalFieldInfoBase", ptr %3, i32 0, i32 1
  store i64 24, ptr %length, align 8
  %4 = load ptr, ptr %result, align 8
  ret ptr %4
}

; Function Attrs: mustprogress nounwind uwtable
define linkonce_odr dso_local noundef zeroext i8 @_ZN4node18SnapshotableObject4typeEv(ptr noundef nonnull align 8 dereferenceable(33) %this) #4 comdat align 2 {
entry:
  %this.addr = alloca ptr, align 8
  store ptr %this, ptr %this.addr, align 8
  %this1 = load ptr, ptr %this.addr, align 8
  %type_ = getelementptr inbounds %"class.node::SnapshotableObject", ptr %this1, i32 0, i32 1
  %0 = load i8, ptr %type_, align 8
  ret i8 %0
}

; Function Attrs: mustprogress nounwind uwtable
define dso_local noundef zeroext i1 @_ZN4node16encoding_binding11BindingData23PrepareForSerializationEN2v85LocalINS2_7ContextEEEPNS2_15SnapshotCreatorE(ptr noundef nonnull align 8 dereferenceable(104) %this, ptr %context.coerce, ptr noundef %creator) unnamed_addr #4 align 2 {
entry:
  %context = alloca %"class.v8::Local.41", align 8
  %this.addr = alloca ptr, align 8
  %creator.addr = alloca ptr, align 8
  %agg.tmp = alloca %"class.v8::Local.41", align 8
  %coerce.dive = getelementptr inbounds %"class.v8::Local.41", ptr %context, i32 0, i32 0
  %coerce.dive1 = getelementptr inbounds %"class.v8::LocalBase.42", ptr %coerce.dive, i32 0, i32 0
  %coerce.dive2 = getelementptr inbounds %"class.v8::IndirectHandleBase", ptr %coerce.dive1, i32 0, i32 0
  store ptr %context.coerce, ptr %coerce.dive2, align 8
  store ptr %this, ptr %this.addr, align 8
  store ptr %creator, ptr %creator.addr, align 8
  %this3 = load ptr, ptr %this.addr, align 8
  %call = call noundef zeroext i8 @_ZN4node18SnapshotableObject4typeEv(ptr noundef nonnull align 8 dereferenceable(33) %this3)
  %call4 = call noundef ptr @_ZN4node21InternalFieldInfoBase3NewINS_16encoding_binding11BindingData17InternalFieldInfoEEEPT_NS_18EmbedderObjectTypeE(i8 noundef zeroext %call)
  %internal_field_info_ = getelementptr inbounds %"class.node::encoding_binding::BindingData", ptr %this3, i32 0, i32 2
  store ptr %call4, ptr %internal_field_info_, align 8
  %encode_into_results_buffer_ = getelementptr inbounds %"class.node::encoding_binding::BindingData", ptr %this3, i32 0, i32 1
  call void @llvm.memcpy.p0.p0.i64(ptr align 8 %agg.tmp, ptr align 8 %context, i64 8, i1 false)
  %0 = load ptr, ptr %creator.addr, align 8
  %coerce.dive5 = getelementptr inbounds %"class.v8::Local.41", ptr %agg.tmp, i32 0, i32 0
  %coerce.dive6 = getelementptr inbounds %"class.v8::LocalBase.42", ptr %coerce.dive5, i32 0, i32 0
  %coerce.dive7 = getelementptr inbounds %"class.v8::IndirectHandleBase", ptr %coerce.dive6, i32 0, i32 0
  %1 = load ptr, ptr %coerce.dive7, align 8
  %call8 = call noundef i64 @_ZN4node17AliasedBufferBaseIjN2v811Uint32ArrayEE9SerializeENS1_5LocalINS1_7ContextEEEPNS1_15SnapshotCreatorE(ptr noundef nonnull align 8 dereferenceable(56) %encode_into_results_buffer_, ptr %1, ptr noundef %0)
  %internal_field_info_9 = getelementptr inbounds %"class.node::encoding_binding::BindingData", ptr %this3, i32 0, i32 2
  %2 = load ptr, ptr %internal_field_info_9, align 8
  %encode_into_results_buffer = getelementptr inbounds %"struct.node::encoding_binding::BindingData::InternalFieldInfo", ptr %2, i32 0, i32 1
  store i64 %call8, ptr %encode_into_results_buffer, align 8
  ret i1 true
}