; Function Attrs: mustprogress nounwind uwtable
define dso_local noundef zeroext i1 @_ZN4node16encoding_binding11BindingData23PrepareForSerializationEN2v85LocalINS2_7ContextEEEPNS2_15SnapshotCreatorE(ptr nocapture noundef nonnull align 8 dereferenceable(104) %this, ptr %context.coerce, ptr noundef %creator) unnamed_addr #3 align 2 {
entry:
  %type_.i = getelementptr inbounds i8, ptr %this, i64 32
  %0 = load i8, ptr %type_.i, align 8
  %call.i = tail call noalias noundef nonnull dereferenceable(24) ptr @_Znam(i64 noundef 24) #21
  store i8 %0, ptr %call.i, align 8
  %length.i = getelementptr inbounds i8, ptr %call.i, i64 8
  store i64 24, ptr %length.i, align 8
  %internal_field_info_ = getelementptr inbounds i8, ptr %this, i64 96
  store ptr %call.i, ptr %internal_field_info_, align 8
  %js_array_.i.i = getelementptr inbounds i8, ptr %this, i64 80
  %1 = load ptr, ptr %js_array_.i.i, align 8, !nonnull !11, !noundef !11
  %isolate_.i.i = getelementptr inbounds i8, ptr %this, i64 48
  %2 = load ptr, ptr %isolate_.i.i, align 8
  %3 = load i64, ptr %1, align 8
  %call.i.i.i = tail call noundef ptr @_ZN2v811HandleScope12CreateHandleEPNS_8internal7IsolateEm(ptr noundef %2, i64 noundef %3) #19
  %4 = load i64, ptr %call.i.i.i, align 8
  %call11.i.i = tail call noundef i64 @_ZN2v815SnapshotCreator7AddDataENS_5LocalINS_7ContextEEEm(ptr noundef nonnull align 8 dereferenceable(8) %creator, ptr %context.coerce, i64 noundef %4) #19
  %5 = load ptr, ptr %internal_field_info_, align 8
  %encode_into_results_buffer = getelementptr inbounds i8, ptr %5, i64 16
  store i64 %call11.i.i, ptr %encode_into_results_buffer, align 8
  ret i1 true
}